target datalayout = "e-m:e-p270:32:32-p271:32:32-p272:64:64-i64:64-i128:128-f80:128-n8:16:32:64-S128"
target triple = "x86_64-pc-linux-gnu"

%"class.llvm::SmallVectorBase" = type { ptr, i32, i32 }
%"class.llvm::SmallPtrSetImplBase.base" = type <{ ptr, ptr, i32, i32, i32 }>
%"class.llvm::VirtRegMap" = type { %"class.llvm::MachineFunctionPass", ptr, ptr, ptr, ptr, %"class.llvm::IndexedMap.142", %"class.llvm::IndexedMap.146", %"class.llvm::IndexedMap.153", %"class.llvm::DenseMap.160" }
%"class.llvm::MachineFunctionPass" = type { %"class.llvm::FunctionPass.base", %"class.llvm::MachineFunctionProperties", %"class.llvm::MachineFunctionProperties", %"class.llvm::MachineFunctionProperties" }
%"class.llvm::FunctionPass.base" = type { %"class.llvm::Pass.base" }
%"class.llvm::Pass.base" = type <{ ptr, ptr, ptr, i32 }>
%"class.llvm::MachineFunctionProperties" = type { %"class.std::bitset" }
%"class.std::bitset" = type { %"struct.std::_Base_bitset" }
%"struct.std::_Base_bitset" = type { i64 }
%"class.llvm::IndexedMap.142" = type <{ %"class.llvm::SmallVector.143", %"class.llvm::Register", [4 x i8] }>
%"class.llvm::SmallVector.143" = type { %"class.llvm::SmallVectorImpl.112" }
%"class.llvm::SmallVectorImpl.112" = type { %"class.llvm::SmallVectorTemplateBase.113" }
%"class.llvm::SmallVectorTemplateBase.113" = type { %"class.llvm::SmallVectorTemplateCommon.114" }
%"class.llvm::SmallVectorTemplateCommon.114" = type { %"class.llvm::SmallVectorBase" }
%"class.llvm::Register" = type { i32 }
%"class.llvm::IndexedMap.146" = type <{ %"class.llvm::SmallVector.147", i32, [4 x i8] }>
%"class.llvm::SmallVector.147" = type { %"class.llvm::SmallVectorImpl.148" }
%"class.llvm::SmallVectorImpl.148" = type { %"class.llvm::SmallVectorTemplateBase.149" }
%"class.llvm::SmallVectorTemplateBase.149" = type { %"class.llvm::SmallVectorTemplateCommon.150" }
%"class.llvm::SmallVectorTemplateCommon.150" = type { %"class.llvm::SmallVectorBase" }
%"class.llvm::IndexedMap.153" = type <{ %"class.llvm::SmallVector.154", i32, [4 x i8] }>
%"class.llvm::SmallVector.154" = type { %"class.llvm::SmallVectorImpl.155" }
%"class.llvm::SmallVectorImpl.155" = type { %"class.llvm::SmallVectorTemplateBase.156" }
%"class.llvm::SmallVectorTemplateBase.156" = type { %"class.llvm::SmallVectorTemplateCommon.157" }
%"class.llvm::SmallVectorTemplateCommon.157" = type { %"class.llvm::SmallVectorBase" }
%"class.llvm::DenseMap.160" = type <{ ptr, i32, i32, i32, [4 x i8] }>
%"class.llvm::MachineFunction" = type <{ ptr, ptr, ptr, ptr, ptr, ptr, ptr, ptr, ptr, ptr, ptr, ptr, %"class.std::vector.5", i32, [4 x i8], %"class.llvm::BumpPtrAllocatorImpl", %"class.llvm::Recycler", %"class.llvm::ArrayRecycler", %"class.llvm::Recycler.21", %"class.llvm::iplist", i32, %"struct.llvm::Align", i8, i8, i8, %"class.llvm::MachineFunctionProperties", %"class.std::unique_ptr", %"class.std::vector.24", %"class.std::vector.29", %"class.std::vector.29", %"class.std::vector.34", %"class.llvm::DenseMap.39", %"class.llvm::DenseMap.42", %"class.llvm::DenseMap.45", %"class.std::vector.48", i8, i8, i8, i8, i8, i8, [2 x i8], i32, i32, %"class.std::vector.53", %"class.std::vector.58", %"class.std::vector.58", i32, [4 x i8], ptr, ptr, %"class.llvm::DenseMap.63", %"class.llvm::SmallVector.66", i32, [4 x i8], %"class.llvm::SmallVector.71", %"class.llvm::DenseMap.76", i8, [7 x i8] }>
%"class.std::vector.5" = type { %"struct.std::_Vector_base.6" }
%"struct.std::_Vector_base.6" = type { %"struct.std::_Vector_base<llvm::MachineBasicBlock *, std::allocator<llvm::MachineBasicBlock *>>::_Vector_impl" }
%"struct.std::_Vector_base<llvm::MachineBasicBlock *, std::allocator<llvm::MachineBasicBlock *>>::_Vector_impl" = type { %"struct.std::_Vector_base<llvm::MachineBasicBlock *, std::allocator<llvm::MachineBasicBlock *>>::_Vector_impl_data" }
%"struct.std::_Vector_base<llvm::MachineBasicBlock *, std::allocator<llvm::MachineBasicBlock *>>::_Vector_impl_data" = type { ptr, ptr, ptr }
%"class.llvm::BumpPtrAllocatorImpl" = type { ptr, ptr, %"class.llvm::SmallVector", %"class.llvm::SmallVector.11", i64, i64 }
%"class.llvm::SmallVector" = type { %"class.llvm::SmallVectorImpl", %"struct.llvm::SmallVectorStorage" }
%"class.llvm::SmallVectorImpl" = type { %"class.llvm::SmallVectorTemplateBase" }
%"class.llvm::SmallVectorTemplateBase" = type { %"class.llvm::SmallVectorTemplateCommon" }
%"class.llvm::SmallVectorTemplateCommon" = type { %"class.llvm::SmallVectorBase" }
%"struct.llvm::SmallVectorStorage" = type { [32 x i8] }
%"class.llvm::SmallVector.11" = type { %"class.llvm::SmallVectorImpl.12" }
%"class.llvm::SmallVectorImpl.12" = type { %"class.llvm::SmallVectorTemplateBase.13" }
%"class.llvm::SmallVectorTemplateBase.13" = type { %"class.llvm::SmallVectorTemplateCommon.14" }
%"class.llvm::SmallVectorTemplateCommon.14" = type { %"class.llvm::SmallVectorBase" }
%"class.llvm::Recycler" = type { ptr }
%"class.llvm::ArrayRecycler" = type { %"class.llvm::SmallVector.16" }
%"class.llvm::SmallVector.16" = type { %"class.llvm::SmallVectorImpl.17", %"struct.llvm::SmallVectorStorage.20" }
%"class.llvm::SmallVectorImpl.17" = type { %"class.llvm::SmallVectorTemplateBase.18" }
%"class.llvm::SmallVectorTemplateBase.18" = type { %"class.llvm::SmallVectorTemplateCommon.19" }
%"class.llvm::SmallVectorTemplateCommon.19" = type { %"class.llvm::SmallVectorBase" }
%"struct.llvm::SmallVectorStorage.20" = type { [64 x i8] }
%"class.llvm::Recycler.21" = type { ptr }
%"class.llvm::iplist" = type { %"class.llvm::iplist_impl" }
%"class.llvm::iplist_impl" = type { %"class.llvm::simple_ilist" }
%"class.llvm::simple_ilist" = type { %"class.llvm::ilist_sentinel" }
%"class.llvm::ilist_sentinel" = type { %"class.llvm::ilist_node_impl" }
%"class.llvm::ilist_node_impl" = type { %"class.llvm::ilist_node_base" }
%"class.llvm::ilist_node_base" = type { %"class.llvm::ilist_detail::node_base_prevnext" }
%"class.llvm::ilist_detail::node_base_prevnext" = type { ptr, ptr }
%"struct.llvm::Align" = type { i8 }
%"class.std::unique_ptr" = type { %"struct.std::__uniq_ptr_data" }
%"struct.std::__uniq_ptr_data" = type { %"class.std::__uniq_ptr_impl" }
%"class.std::__uniq_ptr_impl" = type { %"class.std::tuple" }
%"class.std::tuple" = type { %"struct.std::_Tuple_impl" }
%"struct.std::_Tuple_impl" = type { %"struct.std::_Head_base.23" }
%"struct.std::_Head_base.23" = type { ptr }
%"class.std::vector.24" = type { %"struct.std::_Vector_base.25" }
%"struct.std::_Vector_base.25" = type { %"struct.std::_Vector_base<llvm::MCCFIInstruction, std::allocator<llvm::MCCFIInstruction>>::_Vector_impl" }
%"struct.std::_Vector_base<llvm::MCCFIInstruction, std::allocator<llvm::MCCFIInstruction>>::_Vector_impl" = type { %"struct.std::_Vector_base<llvm::MCCFIInstruction, std::allocator<llvm::MCCFIInstruction>>::_Vector_impl_data" }
%"struct.std::_Vector_base<llvm::MCCFIInstruction, std::allocator<llvm::MCCFIInstruction>>::_Vector_impl_data" = type { ptr, ptr, ptr }
%"class.std::vector.29" = type { %"struct.std::_Vector_base.30" }
%"struct.std::_Vector_base.30" = type { %"struct.std::_Vector_base<llvm::MCSymbol *, std::allocator<llvm::MCSymbol *>>::_Vector_impl" }
%"struct.std::_Vector_base<llvm::MCSymbol *, std::allocator<llvm::MCSymbol *>>::_Vector_impl" = type { %"struct.std::_Vector_base<llvm::MCSymbol *, std::allocator<llvm::MCSymbol *>>::_Vector_impl_data" }
%"struct.std::_Vector_base<llvm::MCSymbol *, std::allocator<llvm::MCSymbol *>>::_Vector_impl_data" = type { ptr, ptr, ptr }
%"class.std::vector.34" = type { %"struct.std::_Vector_base.35" }
%"struct.std::_Vector_base.35" = type { %"struct.std::_Vector_base<llvm::LandingPadInfo, std::allocator<llvm::LandingPadInfo>>::_Vector_impl" }
%"struct.std::_Vector_base<llvm::LandingPadInfo, std::allocator<llvm::LandingPadInfo>>::_Vector_impl" = type { %"struct.std::_Vector_base<llvm::LandingPadInfo, std::allocator<llvm::LandingPadInfo>>::_Vector_impl_data" }
%"struct.std::_Vector_base<llvm::LandingPadInfo, std::allocator<llvm::LandingPadInfo>>::_Vector_impl_data" = type { ptr, ptr, ptr }
%"class.llvm::DenseMap.39" = type <{ ptr, i32, i32, i32, [4 x i8] }>
%"class.llvm::DenseMap.42" = type <{ ptr, i32, i32, i32, [4 x i8] }>
%"class.llvm::DenseMap.45" = type <{ ptr, i32, i32, i32, [4 x i8] }>
%"class.std::vector.48" = type { %"struct.std::_Vector_base.49" }
%"struct.std::_Vector_base.49" = type { %"struct.std::_Vector_base<std::pair<llvm::MCSymbol *, llvm::MDNode *>, std::allocator<std::pair<llvm::MCSymbol *, llvm::MDNode *>>>::_Vector_impl" }
%"struct.std::_Vector_base<std::pair<llvm::MCSymbol *, llvm::MDNode *>, std::allocator<std::pair<llvm::MCSymbol *, llvm::MDNode *>>>::_Vector_impl" = type { %"struct.std::_Vector_base<std::pair<llvm::MCSymbol *, llvm::MDNode *>, std::allocator<std::pair<llvm::MCSymbol *, llvm::MDNode *>>>::_Vector_impl_data" }
%"struct.std::_Vector_base<std::pair<llvm::MCSymbol *, llvm::MDNode *>, std::allocator<std::pair<llvm::MCSymbol *, llvm::MDNode *>>>::_Vector_impl_data" = type { ptr, ptr, ptr }
%"class.std::vector.53" = type { %"struct.std::_Vector_base.54" }
%"struct.std::_Vector_base.54" = type { %"struct.std::_Vector_base<const llvm::GlobalValue *, std::allocator<const llvm::GlobalValue *>>::_Vector_impl" }
%"struct.std::_Vector_base<const llvm::GlobalValue *, std::allocator<const llvm::GlobalValue *>>::_Vector_impl" = type { %"struct.std::_Vector_base<const llvm::GlobalValue *, std::allocator<const llvm::GlobalValue *>>::_Vector_impl_data" }
%"struct.std::_Vector_base<const llvm::GlobalValue *, std::allocator<const llvm::GlobalValue *>>::_Vector_impl_data" = type { ptr, ptr, ptr }
%"class.std::vector.58" = type { %"struct.std::_Vector_base.59" }
%"struct.std::_Vector_base.59" = type { %"struct.std::_Vector_base<unsigned int, std::allocator<unsigned int>>::_Vector_impl" }
%"struct.std::_Vector_base<unsigned int, std::allocator<unsigned int>>::_Vector_impl" = type { %"struct.std::_Vector_base<unsigned int, std::allocator<unsigned int>>::_Vector_impl_data" }
%"struct.std::_Vector_base<unsigned int, std::allocator<unsigned int>>::_Vector_impl_data" = type { ptr, ptr, ptr }
%"class.llvm::DenseMap.63" = type <{ ptr, i32, i32, i32, [4 x i8] }>
%"class.llvm::SmallVector.66" = type { %"class.llvm::SmallVectorImpl.67", %"struct.llvm::SmallVectorStorage.70" }
%"class.llvm::SmallVectorImpl.67" = type { %"class.llvm::SmallVectorTemplateBase.68" }
%"class.llvm::SmallVectorTemplateBase.68" = type { %"class.llvm::SmallVectorTemplateCommon.69" }
%"class.llvm::SmallVectorTemplateCommon.69" = type { %"class.llvm::SmallVectorBase" }
%"struct.llvm::SmallVectorStorage.70" = type { [128 x i8] }
%"class.llvm::SmallVector.71" = type { %"class.llvm::SmallVectorImpl.72", %"struct.llvm::SmallVectorStorage.75" }
%"class.llvm::SmallVectorImpl.72" = type { %"class.llvm::SmallVectorTemplateBase.73" }
%"class.llvm::SmallVectorTemplateBase.73" = type { %"class.llvm::SmallVectorTemplateCommon.74" }
%"class.llvm::SmallVectorTemplateCommon.74" = type { %"class.llvm::SmallVectorBase" }
%"struct.llvm::SmallVectorStorage.75" = type { [160 x i8] }
%"class.llvm::DenseMap.76" = type <{ ptr, i32, i32, i32, [4 x i8] }>
%"class.llvm::MachineRegisterInfo" = type { ptr, %"class.llvm::SmallPtrSet", i8, [7 x i8], %"class.llvm::IndexedMap", %"class.llvm::IndexedMap.86", %"class.llvm::StringSet", i8, %"class.llvm::SmallVector.97", %"class.llvm::IndexedMap.103", %"class.std::unique_ptr.117", %"class.llvm::BitVector", %"class.llvm::BitVector", %"class.llvm::IndexedMap.130", %"class.std::vector.137" }
%"class.llvm::SmallPtrSet" = type { %"class.llvm::SmallPtrSetImpl.base", [1 x ptr] }
%"class.llvm::SmallPtrSetImpl.base" = type { %"class.llvm::SmallPtrSetImplBase.base" }
%"class.llvm::IndexedMap" = type <{ %"class.llvm::SmallVector.79", %"struct.std::pair", [8 x i8] }>
%"class.llvm::SmallVector.79" = type { %"class.llvm::SmallVectorImpl.80" }
%"class.llvm::SmallVectorImpl.80" = type { %"class.llvm::SmallVectorTemplateBase.81" }
%"class.llvm::SmallVectorTemplateBase.81" = type { %"class.llvm::SmallVectorTemplateCommon.82" }
%"class.llvm::SmallVectorTemplateCommon.82" = type { %"class.llvm::SmallVectorBase" }
%"struct.std::pair" = type { %"class.llvm::PointerUnion", ptr }
%"class.llvm::PointerUnion" = type { %"class.llvm::pointer_union_detail::PointerUnionMembers" }
%"class.llvm::pointer_union_detail::PointerUnionMembers" = type { %"class.llvm::pointer_union_detail::PointerUnionMembers.84" }
%"class.llvm::pointer_union_detail::PointerUnionMembers.84" = type { %"class.llvm::pointer_union_detail::PointerUnionMembers.85" }
%"class.llvm::pointer_union_detail::PointerUnionMembers.85" = type { %"class.llvm::PointerIntPair" }
%"class.llvm::PointerIntPair" = type { %"struct.llvm::detail::PunnedPointer" }
%"struct.llvm::detail::PunnedPointer" = type { [8 x i8] }
%"class.llvm::IndexedMap.86" = type <{ %"class.llvm::SmallVector.87", %"class.std::__cxx11::basic_string", [8 x i8] }>
%"class.llvm::SmallVector.87" = type { %"class.llvm::SmallVectorImpl.88" }
%"class.llvm::SmallVectorImpl.88" = type { %"class.llvm::SmallVectorTemplateBase.89" }
%"class.llvm::SmallVectorTemplateBase.89" = type { %"class.llvm::SmallVectorTemplateCommon.90" }
%"class.llvm::SmallVectorTemplateCommon.90" = type { %"class.llvm::SmallVectorBase" }
%"class.std::__cxx11::basic_string" = type { %"struct.std::__cxx11::basic_string<char>::_Alloc_hider", i64, %union.anon }
%"struct.std::__cxx11::basic_string<char>::_Alloc_hider" = type { ptr }
%union.anon = type { i64, [8 x i8] }
%"class.llvm::StringSet" = type { %"class.llvm::StringMap.96" }
%"class.llvm::StringMap.96" = type { %"class.llvm::StringMapImpl" }
%"class.llvm::StringMapImpl" = type { ptr, i32, i32, i32, i32 }
%"class.llvm::SmallVector.97" = type { %"class.llvm::SmallVectorImpl.98", %"struct.llvm::SmallVectorStorage.102" }
%"class.llvm::SmallVectorImpl.98" = type { %"class.llvm::SmallVectorTemplateBase.99" }
%"class.llvm::SmallVectorTemplateBase.99" = type { %"class.llvm::SmallVectorTemplateCommon.100" }
%"class.llvm::SmallVectorTemplateCommon.100" = type { %"class.llvm::SmallVectorBase.101" }
%"class.llvm::SmallVectorBase.101" = type { ptr, i64, i64 }
%"struct.llvm::SmallVectorStorage.102" = type { [32 x i8] }
%"class.llvm::IndexedMap.103" = type <{ %"class.llvm::SmallVector.104", %"struct.std::pair.109", [8 x i8] }>
%"class.llvm::SmallVector.104" = type { %"class.llvm::SmallVectorImpl.105" }
%"class.llvm::SmallVectorImpl.105" = type { %"class.llvm::SmallVectorTemplateBase.106" }
%"class.llvm::SmallVectorTemplateBase.106" = type { %"class.llvm::SmallVectorTemplateCommon.107" }
%"class.llvm::SmallVectorTemplateCommon.107" = type { %"class.llvm::SmallVectorBase" }
%"struct.std::pair.109" = type { i32, %"class.llvm::SmallVector.111" }
%"class.llvm::SmallVector.111" = type { %"class.llvm::SmallVectorImpl.112", %"struct.llvm::SmallVectorStorage.115" }
%"struct.llvm::SmallVectorStorage.115" = type { [16 x i8] }
%"class.std::unique_ptr.117" = type { %"struct.std::__uniq_ptr_data.118" }
%"struct.std::__uniq_ptr_data.118" = type { %"class.std::__uniq_ptr_impl.119" }
%"class.std::__uniq_ptr_impl.119" = type { %"class.std::tuple.120" }
%"class.std::tuple.120" = type { %"struct.std::_Tuple_impl.121" }
%"struct.std::_Tuple_impl.121" = type { %"struct.std::_Head_base.124" }
%"struct.std::_Head_base.124" = type { ptr }
%"class.llvm::BitVector" = type <{ %"class.llvm::SmallVector.125", i32, [4 x i8] }>
%"class.llvm::SmallVector.125" = type { %"class.llvm::SmallVectorImpl.126", %"struct.llvm::SmallVectorStorage.129" }
%"class.llvm::SmallVectorImpl.126" = type { %"class.llvm::SmallVectorTemplateBase.127" }
%"class.llvm::SmallVectorTemplateBase.127" = type { %"class.llvm::SmallVectorTemplateCommon.128" }
%"class.llvm::SmallVectorTemplateCommon.128" = type { %"class.llvm::SmallVectorBase" }
%"struct.llvm::SmallVectorStorage.129" = type { [48 x i8] }
%"class.llvm::IndexedMap.130" = type <{ %"class.llvm::SmallVector.131", %"class.llvm::LLT", [8 x i8] }>
%"class.llvm::SmallVector.131" = type { %"class.llvm::SmallVectorImpl.132" }
%"class.llvm::SmallVectorImpl.132" = type { %"class.llvm::SmallVectorTemplateBase.133" }
%"class.llvm::SmallVectorTemplateBase.133" = type { %"class.llvm::SmallVectorTemplateCommon.134" }
%"class.llvm::SmallVectorTemplateCommon.134" = type { %"class.llvm::SmallVectorBase" }
%"class.llvm::LLT" = type { i64 }
%"class.std::vector.137" = type { %"struct.std::_Vector_base.138" }
%"struct.std::_Vector_base.138" = type { %"struct.std::_Vector_base<std::pair<llvm::MCRegister, llvm::Register>, std::allocator<std::pair<llvm::MCRegister, llvm::Register>>>::_Vector_impl" }
%"struct.std::_Vector_base<std::pair<llvm::MCRegister, llvm::Register>, std::allocator<std::pair<llvm::MCRegister, llvm::Register>>>::_Vector_impl" = type { %"struct.std::_Vector_base<std::pair<llvm::MCRegister, llvm::Register>, std::allocator<std::pair<llvm::MCRegister, llvm::Register>>>::_Vector_impl_data" }
%"struct.std::_Vector_base<std::pair<llvm::MCRegister, llvm::Register>, std::allocator<std::pair<llvm::MCRegister, llvm::Register>>>::_Vector_impl_data" = type { ptr, ptr, ptr }

; Function Attrs: mustprogress nounwind uwtable
define linkonce_odr hidden noundef i64 @_ZNK4llvm10IndexedMapISt4pairINS_12PointerUnionIJPKNS_19TargetRegisterClassEPKNS_12RegisterBankEEEEPNS_14MachineOperandEENS_20VirtReg2IndexFunctorEE4sizeEv(ptr noundef nonnull align 8 dereferenceable(33) %0) #1 comdat align 2 {
  %2 = alloca ptr, align 8
  store ptr %0, ptr %2, align 8
  %3 = load ptr, ptr %2, align 8
  %4 = getelementptr inbounds nuw %"class.llvm::IndexedMap", ptr %3, i32 0, i32 0
  %5 = call noundef i64 @_ZNK4llvm15SmallVectorBaseIjE4sizeEv(ptr noundef nonnull align 8 dereferenceable(16) %4)
  ret i64 %5
}

; Function Attrs: mustprogress nounwind uwtable
define linkonce_odr hidden void @_ZN4llvm10IndexedMapIjNS_20VirtReg2IndexFunctorEE6resizeEm(ptr noundef nonnull align 8 dereferenceable(21) %0, i64 noundef %1) #1 comdat align 2 {
  %3 = alloca ptr, align 8
  %4 = alloca i64, align 8
  store ptr %0, ptr %3, align 8
  store i64 %1, ptr %4, align 8
  %5 = load ptr, ptr %3, align 8
  %6 = getelementptr inbounds nuw %"class.llvm::IndexedMap.153", ptr %5, i32 0, i32 0
  %7 = load i64, ptr %4, align 8
  %8 = getelementptr inbounds nuw %"class.llvm::IndexedMap.153", ptr %5, i32 0, i32 1
  %9 = load i32, ptr %8, align 8
  call void @_ZN4llvm15SmallVectorImplIjE6resizeEmj(ptr noundef nonnull align 8 dereferenceable(16) %6, i64 noundef %7, i32 noundef %9)
  ret void
}

; Function Attrs: mustprogress nounwind uwtable
define linkonce_odr hidden void @_ZN4llvm10IndexedMapIiNS_20VirtReg2IndexFunctorEE6resizeEm(ptr noundef nonnull align 8 dereferenceable(21) %0, i64 noundef %1) #1 comdat align 2 {
  %3 = alloca ptr, align 8
  %4 = alloca i64, align 8
  store ptr %0, ptr %3, align 8
  store i64 %1, ptr %4, align 8
  %5 = load ptr, ptr %3, align 8
  %6 = getelementptr inbounds nuw %"class.llvm::IndexedMap.146", ptr %5, i32 0, i32 0
  %7 = load i64, ptr %4, align 8
  %8 = getelementptr inbounds nuw %"class.llvm::IndexedMap.146", ptr %5, i32 0, i32 1
  %9 = load i32, ptr %8, align 8
  call void @_ZN4llvm15SmallVectorImplIiE6resizeEmi(ptr noundef nonnull align 8 dereferenceable(16) %6, i64 noundef %7, i32 noundef %9)
  ret void
}

; Function Attrs: mustprogress nounwind uwtable
define linkonce_odr hidden void @_ZN4llvm10IndexedMapINS_8RegisterENS_20VirtReg2IndexFunctorEE6resizeEm(ptr noundef nonnull align 8 dereferenceable(21) %0, i64 noundef %1) #1 comdat align 2 {
  %3 = alloca ptr, align 8
  %4 = alloca i64, align 8
  %5 = alloca %"class.llvm::Register", align 4
  store ptr %0, ptr %3, align 8
  store i64 %1, ptr %4, align 8
  %6 = load ptr, ptr %3, align 8
  %7 = getelementptr inbounds nuw %"class.llvm::IndexedMap.142", ptr %6, i32 0, i32 0
  %8 = load i64, ptr %4, align 8
  %9 = getelementptr inbounds nuw %"class.llvm::IndexedMap.142", ptr %6, i32 0, i32 1
  call void @llvm.memcpy.p0.p0.i64(ptr align 4 %5, ptr align 8 %9, i64 4, i1 false)
  %10 = getelementptr inbounds nuw %"class.llvm::Register", ptr %5, i32 0, i32 0
  %11 = load i32, ptr %10, align 4
  call void @_ZN4llvm15SmallVectorImplINS_8RegisterEE6resizeEmS1_(ptr noundef nonnull align 8 dereferenceable(16) %7, i64 noundef %8, i32 %11)
  ret void
}

; Function Attrs: mustprogress nounwind uwtable
define linkonce_odr hidden noundef i32 @_ZNK4llvm19MachineRegisterInfo14getNumVirtRegsEv(ptr noundef nonnull align 8 dereferenceable(512) %0) #1 comdat align 2 {
  %2 = alloca ptr, align 8
  store ptr %0, ptr %2, align 8
  %3 = load ptr, ptr %2, align 8
  %4 = getelementptr inbounds nuw %"class.llvm::MachineRegisterInfo", ptr %3, i32 0, i32 4
  %5 = call noundef i64 @_ZNK4llvm10IndexedMapISt4pairINS_12PointerUnionIJPKNS_19TargetRegisterClassEPKNS_12RegisterBankEEEEPNS_14MachineOperandEENS_20VirtReg2IndexFunctorEE4sizeEv(ptr noundef nonnull align 8 dereferenceable(33) %4)
  %6 = trunc i64 %5 to i32
  ret i32 %6
}

; Function Attrs: mustprogress nounwind uwtable
define linkonce_odr hidden noundef nonnull align 8 dereferenceable(512) ptr @_ZN4llvm15MachineFunction10getRegInfoEv(ptr noundef nonnull align 8 dereferenceable(1041) %0) #1 comdat align 2 {
  %2 = alloca ptr, align 8
  store ptr %0, ptr %2, align 8
  %3 = load ptr, ptr %2, align 8
  %4 = getelementptr inbounds nuw %"class.llvm::MachineFunction", ptr %3, i32 0, i32 4
  %5 = load ptr, ptr %4, align 8
  ret ptr %5
}

; Function Attrs: mustprogress nounwind uwtable
define dso_local void @_ZN4llvm10VirtRegMap4growEv(ptr noundef nonnull align 8 dereferenceable(184) %0) #1 align 2 {
  %2 = alloca ptr, align 8
  %3 = alloca i32, align 4
  store ptr %0, ptr %2, align 8
  %4 = load ptr, ptr %2, align 8
  %5 = getelementptr inbounds nuw %"class.llvm::VirtRegMap", ptr %4, i32 0, i32 4
  %6 = load ptr, ptr %5, align 8
  %7 = call noundef nonnull align 8 dereferenceable(512) ptr @_ZN4llvm15MachineFunction10getRegInfoEv(ptr noundef nonnull align 8 dereferenceable(1041) %6)
  %8 = call noundef i32 @_ZNK4llvm19MachineRegisterInfo14getNumVirtRegsEv(ptr noundef nonnull align 8 dereferenceable(512) %7)
  store i32 %8, ptr %3, align 4
  %9 = getelementptr inbounds nuw %"class.llvm::VirtRegMap", ptr %4, i32 0, i32 5
  %10 = load i32, ptr %3, align 4
  %11 = zext i32 %10 to i64
  call void @_ZN4llvm10IndexedMapINS_8RegisterENS_20VirtReg2IndexFunctorEE6resizeEm(ptr noundef nonnull align 8 dereferenceable(21) %9, i64 noundef %11)
  %12 = getelementptr inbounds nuw %"class.llvm::VirtRegMap", ptr %4, i32 0, i32 6
  %13 = load i32, ptr %3, align 4
  %14 = zext i32 %13 to i64
  call void @_ZN4llvm10IndexedMapIiNS_20VirtReg2IndexFunctorEE6resizeEm(ptr noundef nonnull align 8 dereferenceable(21) %12, i64 noundef %14)
  %15 = getelementptr inbounds nuw %"class.llvm::VirtRegMap", ptr %4, i32 0, i32 7
  %16 = load i32, ptr %3, align 4
  %17 = zext i32 %16 to i64
  call void @_ZN4llvm10IndexedMapIjNS_20VirtReg2IndexFunctorEE6resizeEm(ptr noundef nonnull align 8 dereferenceable(21) %15, i64 noundef %17)
  ret void
}