; Function Attrs: mustprogress nounwind uwtable
define dso_local void @_ZN4llvm10VirtRegMap4growEv(ptr noundef nonnull align 8 dereferenceable(184) %0) local_unnamed_addr #0 align 2 {
  %2 = getelementptr inbounds nuw i8, ptr %0, i64 80
  %3 = load ptr, ptr %2, align 8
  %4 = getelementptr inbounds nuw i8, ptr %3, i64 32
  %5 = load ptr, ptr %4, align 8
  %6 = getelementptr inbounds nuw i8, ptr %5, i64 56
  %7 = tail call noundef i64 @_ZNK4llvm15SmallVectorBaseIjE4sizeEv(ptr noundef nonnull align 8 dereferenceable(16) %6) #16
  %8 = getelementptr inbounds nuw i8, ptr %0, i64 88
  %9 = and i64 %7, 4294967295
  %10 = getelementptr inbounds i8, ptr %0, i64 104
  %.sroa.0.0.copyload.i = load i32, ptr %10, align 8
  tail call void @_ZN4llvm15SmallVectorImplINS_8RegisterEE6resizeEmS1_(ptr noundef nonnull align 8 dereferenceable(16) %8, i64 noundef %9, i32 %.sroa.0.0.copyload.i)
  %11 = getelementptr inbounds nuw i8, ptr %0, i64 112
  %12 = getelementptr inbounds i8, ptr %0, i64 128
  %13 = load i32, ptr %12, align 8
  tail call void @_ZN4llvm15SmallVectorImplIiE6resizeEmi(ptr noundef nonnull align 8 dereferenceable(16) %11, i64 noundef %9, i32 noundef %13)
  %14 = getelementptr inbounds nuw i8, ptr %0, i64 136
  %15 = getelementptr inbounds i8, ptr %0, i64 152
  %16 = load i32, ptr %15, align 8
  tail call void @_ZN4llvm15SmallVectorImplIjE6resizeEmj(ptr noundef nonnull align 8 dereferenceable(16) %14, i64 noundef %9, i32 noundef %16)
  ret void
}